; Function Attrs: mustprogress nofree norecurse nosync nounwind willreturn memory(read, inaccessiblemem: none) uwtable
define dso_local noundef zeroext i1 @_ZN4llvm16AArch64InstrInfo17isExynosLogicFastERKNS_12MachineInstrE(ptr nocapture noundef nonnull readonly align 8 dereferenceable(70) %0) local_unnamed_addr #4 align 2 {
  %2 = getelementptr inbounds nuw i8, ptr %0, i64 68
  %3 = load i16, ptr %2, align 4
  switch i16 %3, label %14 [
    i16 1551, label %4
    i16 1553, label %4
    i16 1542, label %4
    i16 1544, label %4
    i16 1751, label %4
    i16 1752, label %4
    i16 1748, label %4
    i16 1749, label %4
    i16 2303, label %4
    i16 2304, label %4
    i16 2325, label %4
    i16 2327, label %4
    i16 4864, label %4
    i16 4865, label %4
    i16 4875, label %4
    i16 4877, label %4
    i16 331, label %_ZN4llvm10AArch64_AML12getShiftTypeEj.exit.thread
    i16 332, label %_ZN4llvm10AArch64_AML12getShiftTypeEj.exit.thread
    i16 329, label %_ZN4llvm10AArch64_AML12getShiftTypeEj.exit.thread
    i16 330, label %_ZN4llvm10AArch64_AML12getShiftTypeEj.exit.thread
    i16 423, label %_ZN4llvm10AArch64_AML12getShiftTypeEj.exit.thread
    i16 424, label %_ZN4llvm10AArch64_AML12getShiftTypeEj.exit.thread
    i16 421, label %_ZN4llvm10AArch64_AML12getShiftTypeEj.exit.thread
    i16 422, label %_ZN4llvm10AArch64_AML12getShiftTypeEj.exit.thread
    i16 473, label %_ZN4llvm10AArch64_AML12getShiftTypeEj.exit.thread
    i16 474, label %_ZN4llvm10AArch64_AML12getShiftTypeEj.exit.thread
    i16 475, label %_ZN4llvm10AArch64_AML12getShiftTypeEj.exit.thread
    i16 476, label %_ZN4llvm10AArch64_AML12getShiftTypeEj.exit.thread
    i16 994, label %_ZN4llvm10AArch64_AML12getShiftTypeEj.exit.thread
    i16 995, label %_ZN4llvm10AArch64_AML12getShiftTypeEj.exit.thread
    i16 996, label %_ZN4llvm10AArch64_AML12getShiftTypeEj.exit.thread
    i16 997, label %_ZN4llvm10AArch64_AML12getShiftTypeEj.exit.thread
    i16 1550, label %_ZN4llvm10AArch64_AML12getShiftTypeEj.exit.thread
    i16 1552, label %_ZN4llvm10AArch64_AML12getShiftTypeEj.exit.thread
    i16 2324, label %_ZN4llvm10AArch64_AML12getShiftTypeEj.exit.thread
    i16 2326, label %_ZN4llvm10AArch64_AML12getShiftTypeEj.exit.thread
    i16 4874, label %_ZN4llvm10AArch64_AML12getShiftTypeEj.exit.thread
    i16 4876, label %_ZN4llvm10AArch64_AML12getShiftTypeEj.exit.thread
  ]

4:                                                ; preds = %1, %1, %1, %1, %1, %1, %1, %1, %1, %1, %1, %1, %1, %1, %1, %1
  %5 = getelementptr inbounds nuw i8, ptr %0, i64 32
  %6 = load ptr, ptr %5, align 8
  %7 = getelementptr inbounds i8, ptr %6, i64 112
  %8 = load i64, ptr %7, align 8
  %9 = trunc i64 %8 to i32
  %10 = and i32 %9, 63
  %11 = icmp eq i32 %10, 0
  br i1 %11, label %_ZN4llvm10AArch64_AML12getShiftTypeEj.exit.thread, label %12

12:                                               ; preds = %4
  %13 = and i32 %9, 448
  %cond = icmp eq i32 %13, 0
  %switch = icmp ult i32 %10, 4
  %spec.select = and i1 %cond, %switch
  br label %_ZN4llvm10AArch64_AML12getShiftTypeEj.exit.thread

14:                                               ; preds = %1
  br label %_ZN4llvm10AArch64_AML12getShiftTypeEj.exit.thread

_ZN4llvm10AArch64_AML12getShiftTypeEj.exit.thread: ; preds = %12, %1, %1, %1, %1, %1, %1, %1, %1, %1, %1, %1, %1, %1, %1, %1, %1, %1, %1, %1, %1, %1, %1, %4, %14
  %.0 = phi i1 [ false, %14 ], [ true, %4 ], [ true, %1 ], [ true, %1 ], [ true, %1 ], [ true, %1 ], [ true, %1 ], [ true, %1 ], [ true, %1 ], [ true, %1 ], [ true, %1 ], [ true, %1 ], [ true, %1 ], [ true, %1 ], [ true, %1 ], [ true, %1 ], [ true, %1 ], [ true, %1 ], [ true, %1 ], [ true, %1 ], [ true, %1 ], [ true, %1 ], [ true, %1 ], [ true, %1 ], [ %spec.select, %12 ]
  ret i1 %.0
}